target datalayout = "e-m:e-p270:32:32-p271:32:32-p272:64:64-i64:64-i128:128-f80:128-n8:16:32:64-S128"
target triple = "x86_64-pc-linux-gnu"

; Function Attrs: nounwind uwtable
define i64 @zend_hash_func(ptr noundef %0, i64 noundef %1) #0 {
  %3 = alloca ptr, align 8
  %4 = alloca i64, align 8
  %5 = alloca i64, align 8
  %6 = alloca ptr, align 8
  %7 = alloca i64, align 8
  store ptr %0, ptr %6, align 8
  store i64 %1, ptr %7, align 8
  %8 = load ptr, ptr %6, align 8
  %9 = load i64, ptr %7, align 8
  store ptr %8, ptr %3, align 8
  store i64 %9, ptr %4, align 8
  store i64 5381, ptr %5, align 8
  br label %10

10:                                               ; preds = %13, %2
  %11 = load i64, ptr %4, align 8
  %12 = icmp uge i64 %11, 8
  br i1 %12, label %13, label %83

13:                                               ; preds = %10
  %14 = load i64, ptr %5, align 8
  %15 = mul i64 %14, 33
  %16 = mul i64 %15, 33
  %17 = mul i64 %16, 33
  %18 = mul i64 %17, 33
  %19 = load ptr, ptr %3, align 8
  %20 = load i8, ptr %19, align 1
  %21 = sext i8 %20 to i32
  %22 = mul nsw i32 %21, 33
  %23 = mul nsw i32 %22, 33
  %24 = sext i32 %23 to i64
  %25 = mul nsw i64 %24, 33
  %26 = add i64 %18, %25
  %27 = load ptr, ptr %3, align 8
  %28 = getelementptr inbounds i8, ptr %27, i64 1
  %29 = load i8, ptr %28, align 1
  %30 = sext i8 %29 to i32
  %31 = mul nsw i32 %30, 33
  %32 = sext i32 %31 to i64
  %33 = mul nsw i64 %32, 33
  %34 = add i64 %26, %33
  %35 = load ptr, ptr %3, align 8
  %36 = getelementptr inbounds i8, ptr %35, i64 2
  %37 = load i8, ptr %36, align 1
  %38 = sext i8 %37 to i64
  %39 = mul nsw i64 %38, 33
  %40 = add i64 %34, %39
  %41 = load ptr, ptr %3, align 8
  %42 = getelementptr inbounds i8, ptr %41, i64 3
  %43 = load i8, ptr %42, align 1
  %44 = sext i8 %43 to i64
  %45 = add i64 %40, %44
  store i64 %45, ptr %5, align 8
  %46 = load i64, ptr %5, align 8
  %47 = mul i64 %46, 33
  %48 = mul i64 %47, 33
  %49 = mul i64 %48, 33
  %50 = mul i64 %49, 33
  %51 = load ptr, ptr %3, align 8
  %52 = getelementptr inbounds i8, ptr %51, i64 4
  %53 = load i8, ptr %52, align 1
  %54 = sext i8 %53 to i32
  %55 = mul nsw i32 %54, 33
  %56 = mul nsw i32 %55, 33
  %57 = sext i32 %56 to i64
  %58 = mul nsw i64 %57, 33
  %59 = add i64 %50, %58
  %60 = load ptr, ptr %3, align 8
  %61 = getelementptr inbounds i8, ptr %60, i64 5
  %62 = load i8, ptr %61, align 1
  %63 = sext i8 %62 to i32
  %64 = mul nsw i32 %63, 33
  %65 = sext i32 %64 to i64
  %66 = mul nsw i64 %65, 33
  %67 = add i64 %59, %66
  %68 = load ptr, ptr %3, align 8
  %69 = getelementptr inbounds i8, ptr %68, i64 6
  %70 = load i8, ptr %69, align 1
  %71 = sext i8 %70 to i64
  %72 = mul nsw i64 %71, 33
  %73 = add i64 %67, %72
  %74 = load ptr, ptr %3, align 8
  %75 = getelementptr inbounds i8, ptr %74, i64 7
  %76 = load i8, ptr %75, align 1
  %77 = sext i8 %76 to i64
  %78 = add i64 %73, %77
  store i64 %78, ptr %5, align 8
  %79 = load i64, ptr %4, align 8
  %80 = sub i64 %79, 8
  store i64 %80, ptr %4, align 8
  %81 = load ptr, ptr %3, align 8
  %82 = getelementptr inbounds i8, ptr %81, i64 8
  store ptr %82, ptr %3, align 8
  br label %10

83:                                               ; preds = %10
  %84 = load i64, ptr %4, align 8
  %85 = icmp uge i64 %84, 4
  br i1 %85, label %86, label %123

86:                                               ; preds = %83
  %87 = load i64, ptr %5, align 8
  %88 = mul i64 %87, 33
  %89 = mul i64 %88, 33
  %90 = mul i64 %89, 33
  %91 = mul i64 %90, 33
  %92 = load ptr, ptr %3, align 8
  %93 = load i8, ptr %92, align 1
  %94 = sext i8 %93 to i32
  %95 = mul nsw i32 %94, 33
  %96 = mul nsw i32 %95, 33
  %97 = sext i32 %96 to i64
  %98 = mul nsw i64 %97, 33
  %99 = add i64 %91, %98
  %100 = load ptr, ptr %3, align 8
  %101 = getelementptr inbounds i8, ptr %100, i64 1
  %102 = load i8, ptr %101, align 1
  %103 = sext i8 %102 to i32
  %104 = mul nsw i32 %103, 33
  %105 = sext i32 %104 to i64
  %106 = mul nsw i64 %105, 33
  %107 = add i64 %99, %106
  %108 = load ptr, ptr %3, align 8
  %109 = getelementptr inbounds i8, ptr %108, i64 2
  %110 = load i8, ptr %109, align 1
  %111 = sext i8 %110 to i64
  %112 = mul nsw i64 %111, 33
  %113 = add i64 %107, %112
  %114 = load ptr, ptr %3, align 8
  %115 = getelementptr inbounds i8, ptr %114, i64 3
  %116 = load i8, ptr %115, align 1
  %117 = sext i8 %116 to i64
  %118 = add i64 %113, %117
  store i64 %118, ptr %5, align 8
  %119 = load i64, ptr %4, align 8
  %120 = sub i64 %119, 4
  store i64 %120, ptr %4, align 8
  %121 = load ptr, ptr %3, align 8
  %122 = getelementptr inbounds i8, ptr %121, i64 4
  store ptr %122, ptr %3, align 8
  br label %123

123:                                              ; preds = %86, %83
  %124 = load i64, ptr %4, align 8
  %125 = icmp uge i64 %124, 2
  br i1 %125, label %126, label %167

126:                                              ; preds = %123
  %127 = load i64, ptr %4, align 8
  %128 = icmp ugt i64 %127, 2
  br i1 %128, label %129, label %152

129:                                              ; preds = %126
  %130 = load i64, ptr %5, align 8
  %131 = mul i64 %130, 33
  %132 = mul i64 %131, 33
  %133 = mul i64 %132, 33
  %134 = load ptr, ptr %3, align 8
  %135 = load i8, ptr %134, align 1
  %136 = sext i8 %135 to i32
  %137 = mul nsw i32 %136, 33
  %138 = sext i32 %137 to i64
  %139 = mul nsw i64 %138, 33
  %140 = add i64 %133, %139
  %141 = load ptr, ptr %3, align 8
  %142 = getelementptr inbounds i8, ptr %141, i64 1
  %143 = load i8, ptr %142, align 1
  %144 = sext i8 %143 to i64
  %145 = mul nsw i64 %144, 33
  %146 = add i64 %140, %145
  %147 = load ptr, ptr %3, align 8
  %148 = getelementptr inbounds i8, ptr %147, i64 2
  %149 = load i8, ptr %148, align 1
  %150 = sext i8 %149 to i64
  %151 = add i64 %146, %150
  store i64 %151, ptr %5, align 8
  br label %166

152:                                              ; preds = %126
  %153 = load i64, ptr %5, align 8
  %154 = mul i64 %153, 33
  %155 = mul i64 %154, 33
  %156 = load ptr, ptr %3, align 8
  %157 = load i8, ptr %156, align 1
  %158 = sext i8 %157 to i64
  %159 = mul nsw i64 %158, 33
  %160 = add i64 %155, %159
  %161 = load ptr, ptr %3, align 8
  %162 = getelementptr inbounds i8, ptr %161, i64 1
  %163 = load i8, ptr %162, align 1
  %164 = sext i8 %163 to i64
  %165 = add i64 %160, %164
  store i64 %165, ptr %5, align 8
  br label %166

166:                                              ; preds = %152, %129
  br label %178

167:                                              ; preds = %123
  %168 = load i64, ptr %4, align 8
  %169 = icmp ne i64 %168, 0
  br i1 %169, label %170, label %177

170:                                              ; preds = %167
  %171 = load i64, ptr %5, align 8
  %172 = mul i64 %171, 33
  %173 = load ptr, ptr %3, align 8
  %174 = load i8, ptr %173, align 1
  %175 = sext i8 %174 to i64
  %176 = add i64 %172, %175
  store i64 %176, ptr %5, align 8
  br label %177

177:                                              ; preds = %170, %167
  br label %178

178:                                              ; preds = %177, %166
  %179 = load i64, ptr %5, align 8
  %180 = or i64 %179, -9223372036854775808
  ret i64 %180
}