; Function Attrs: nofree norecurse nosync nounwind memory(read, inaccessiblemem: none) uwtable
define i64 @zend_hash_func(ptr nocapture noundef readonly %0, i64 noundef %1) local_unnamed_addr #1 {
  %3 = icmp ugt i64 %1, 7
  br i1 %3, label %.lr.ph, label %._crit_edge

.lr.ph:                                           ; preds = %2, %.lr.ph
  %.042 = phi ptr [ %44, %.lr.ph ], [ %0, %2 ]
  %.03541 = phi i64 [ %43, %.lr.ph ], [ %1, %2 ]
  %.03740 = phi i64 [ %42, %.lr.ph ], [ 5381, %2 ]
  %4 = mul i64 %.03740, 1185921
  %5 = load i8, ptr %.042, align 1
  %6 = sext i8 %5 to i64
  %7 = mul nsw i64 %6, 35937
  %8 = add i64 %7, %4
  %9 = getelementptr inbounds i8, ptr %.042, i64 1
  %10 = load i8, ptr %9, align 1
  %11 = sext i8 %10 to i64
  %12 = mul nsw i64 %11, 1089
  %13 = add i64 %8, %12
  %14 = getelementptr inbounds i8, ptr %.042, i64 2
  %15 = load i8, ptr %14, align 1
  %16 = sext i8 %15 to i64
  %17 = mul nsw i64 %16, 33
  %18 = add i64 %13, %17
  %19 = getelementptr inbounds i8, ptr %.042, i64 3
  %20 = load i8, ptr %19, align 1
  %21 = sext i8 %20 to i64
  %22 = add i64 %18, %21
  %23 = mul i64 %22, 1185921
  %24 = getelementptr inbounds i8, ptr %.042, i64 4
  %25 = load i8, ptr %24, align 1
  %26 = sext i8 %25 to i64
  %27 = mul nsw i64 %26, 35937
  %28 = add i64 %23, %27
  %29 = getelementptr inbounds i8, ptr %.042, i64 5
  %30 = load i8, ptr %29, align 1
  %31 = sext i8 %30 to i64
  %32 = mul nsw i64 %31, 1089
  %33 = add i64 %28, %32
  %34 = getelementptr inbounds i8, ptr %.042, i64 6
  %35 = load i8, ptr %34, align 1
  %36 = sext i8 %35 to i64
  %37 = mul nsw i64 %36, 33
  %38 = add i64 %33, %37
  %39 = getelementptr inbounds i8, ptr %.042, i64 7
  %40 = load i8, ptr %39, align 1
  %41 = sext i8 %40 to i64
  %42 = add i64 %38, %41
  %43 = add i64 %.03541, -8
  %44 = getelementptr inbounds i8, ptr %.042, i64 8
  %45 = icmp ugt i64 %43, 7
  br i1 %45, label %.lr.ph, label %._crit_edge

._crit_edge:                                      ; preds = %.lr.ph, %2
  %.037.lcssa = phi i64 [ 5381, %2 ], [ %42, %.lr.ph ]
  %.035.lcssa = phi i64 [ %1, %2 ], [ %43, %.lr.ph ]
  %.0.lcssa = phi ptr [ %0, %2 ], [ %44, %.lr.ph ]
  %46 = icmp ugt i64 %.035.lcssa, 3
  br i1 %46, label %47, label %69

47:                                               ; preds = %._crit_edge
  %48 = mul i64 %.037.lcssa, 1185921
  %49 = load i8, ptr %.0.lcssa, align 1
  %50 = sext i8 %49 to i64
  %51 = mul nsw i64 %50, 35937
  %52 = add i64 %51, %48
  %53 = getelementptr inbounds i8, ptr %.0.lcssa, i64 1
  %54 = load i8, ptr %53, align 1
  %55 = sext i8 %54 to i64
  %56 = mul nsw i64 %55, 1089
  %57 = add i64 %52, %56
  %58 = getelementptr inbounds i8, ptr %.0.lcssa, i64 2
  %59 = load i8, ptr %58, align 1
  %60 = sext i8 %59 to i64
  %61 = mul nsw i64 %60, 33
  %62 = add i64 %57, %61
  %63 = getelementptr inbounds i8, ptr %.0.lcssa, i64 3
  %64 = load i8, ptr %63, align 1
  %65 = sext i8 %64 to i64
  %66 = add i64 %62, %65
  %67 = add nsw i64 %.035.lcssa, -4
  %68 = getelementptr inbounds i8, ptr %.0.lcssa, i64 4
  br label %69

69:                                               ; preds = %47, %._crit_edge
  %.138 = phi i64 [ %66, %47 ], [ %.037.lcssa, %._crit_edge ]
  %.136 = phi i64 [ %67, %47 ], [ %.035.lcssa, %._crit_edge ]
  %.1 = phi ptr [ %68, %47 ], [ %.0.lcssa, %._crit_edge ]
  %70 = icmp ugt i64 %.136, 1
  br i1 %70, label %71, label %92

71:                                               ; preds = %69
  %.not39 = icmp eq i64 %.136, 2
  %72 = load i8, ptr %.1, align 1
  %73 = sext i8 %72 to i64
  %74 = getelementptr inbounds i8, ptr %.1, i64 1
  %75 = load i8, ptr %74, align 1
  %76 = sext i8 %75 to i64
  br i1 %.not39, label %87, label %77

77:                                               ; preds = %71
  %78 = mul i64 %.138, 35937
  %79 = mul nsw i64 %73, 1089
  %80 = add i64 %79, %78
  %81 = mul nsw i64 %76, 33
  %82 = add i64 %80, %81
  %83 = getelementptr inbounds i8, ptr %.1, i64 2
  %84 = load i8, ptr %83, align 1
  %85 = sext i8 %84 to i64
  %86 = add i64 %82, %85
  br label %98

87:                                               ; preds = %71
  %88 = mul i64 %.138, 1089
  %89 = mul nsw i64 %73, 33
  %90 = add i64 %89, %88
  %91 = add i64 %90, %76
  br label %98

92:                                               ; preds = %69
  %.not = icmp eq i64 %.136, 0
  br i1 %.not, label %98, label %93

93:                                               ; preds = %92
  %94 = mul i64 %.138, 33
  %95 = load i8, ptr %.1, align 1
  %96 = sext i8 %95 to i64
  %97 = add i64 %94, %96
  br label %98

98:                                               ; preds = %92, %93, %77, %87
  %.2 = phi i64 [ %86, %77 ], [ %91, %87 ], [ %97, %93 ], [ %.138, %92 ]
  %99 = or i64 %.2, -9223372036854775808
  ret i64 %99
}